; Function Attrs: mustprogress nofree nounwind willreturn memory(write, argmem: readwrite, inaccessiblemem: readwrite) uwtable
define void @_ZN32pxrInternal_v0_24__pxrReserved__24GfConvertDisplayToLinearERKNS_7GfVec3dE(ptr dead_on_unwind noalias writable writeonly sret(%"class.pxrInternal_v0_24__pxrReserved__::GfVec3d") align 8 captures(none) initializes((0, 24)) %0, ptr noundef nonnull readonly align 8 captures(none) dereferenceable(24) %1) local_unnamed_addr #5 {
  tail call void @llvm.experimental.noalias.scope.decl(metadata !18)
  tail call void @llvm.experimental.noalias.scope.decl(metadata !21)
  %3 = load double, ptr %1, align 8, !noalias !24
  %4 = tail call double @pow(double noundef %3, double noundef 2.200000e+00) #8, !noalias !24
  %5 = getelementptr inbounds nuw i8, ptr %1, i64 8
  %6 = load double, ptr %5, align 8, !noalias !24
  %7 = tail call double @pow(double noundef %6, double noundef 2.200000e+00) #8, !noalias !24
  %8 = getelementptr inbounds nuw i8, ptr %1, i64 16
  %9 = load double, ptr %8, align 8, !noalias !24
  %10 = tail call double @pow(double noundef %9, double noundef 2.200000e+00) #8, !noalias !24
  store double %4, ptr %0, align 8, !alias.scope !24
  %11 = getelementptr inbounds nuw i8, ptr %0, i64 8
  store double %7, ptr %11, align 8, !alias.scope !24
  %12 = getelementptr inbounds nuw i8, ptr %0, i64 16
  store double %10, ptr %12, align 8, !alias.scope !24
  ret void
}